target datalayout = "e-m:e-p270:32:32-p271:32:32-p272:64:64-i64:64-i128:128-f80:128-n8:16:32:64-S128"
target triple = "x86_64-pc-linux-gnu"

%struct.evp_keymgmt_st = type { i32, i32, i32, ptr, ptr, ptr, %struct.CRYPTO_REF_COUNT, ptr, ptr, ptr, ptr, ptr, ptr, ptr, ptr, ptr, ptr, ptr, ptr, ptr, ptr, ptr, ptr, ptr, ptr, ptr, ptr, ptr, ptr, ptr, ptr, ptr, ptr }
%struct.CRYPTO_REF_COUNT = type { i32 }

; Function Attrs: nounwind uwtable
define ptr @EVP_KEYMGMT_get0_provider(ptr noundef %0) #0 {
  %2 = alloca ptr, align 8
  store ptr %0, ptr %2, align 8, !tbaa !18
  %3 = load ptr, ptr %2, align 8, !tbaa !18
  %4 = getelementptr inbounds nuw %struct.evp_keymgmt_st, ptr %3, i32 0, i32 5
  %5 = load ptr, ptr %4, align 8, !tbaa !56
  ret ptr %5
}

; Function Attrs: nounwind uwtable
define ptr @evp_keymgmt_gen_init(ptr noundef %0, i32 noundef %1, ptr noundef %2) #0 {
  %4 = alloca ptr, align 8
  %5 = alloca ptr, align 8
  %6 = alloca i32, align 4
  %7 = alloca ptr, align 8
  %8 = alloca ptr, align 8
  %9 = alloca i32, align 4
  store ptr %0, ptr %5, align 8, !tbaa !18
  store i32 %1, ptr %6, align 4, !tbaa !10
  store ptr %2, ptr %7, align 8, !tbaa !63
  call void @llvm.lifetime.start.p0(i64 8, ptr %8) #4
  %10 = load ptr, ptr %5, align 8, !tbaa !18
  %11 = call ptr @EVP_KEYMGMT_get0_provider(ptr noundef %10)
  %12 = call ptr @ossl_provider_ctx(ptr noundef %11)
  store ptr %12, ptr %8, align 8, !tbaa !58
  %13 = load ptr, ptr %5, align 8, !tbaa !18
  %14 = getelementptr inbounds nuw %struct.evp_keymgmt_st, ptr %13, i32 0, i32 13
  %15 = load ptr, ptr %14, align 8, !tbaa !29
  %16 = icmp eq ptr %15, null
  br i1 %16, label %17, label %18

17:                                               ; preds = %3
  store ptr null, ptr %4, align 8
  store i32 1, ptr %9, align 4
  br label %26

18:                                               ; preds = %3
  %19 = load ptr, ptr %5, align 8, !tbaa !18
  %20 = getelementptr inbounds nuw %struct.evp_keymgmt_st, ptr %19, i32 0, i32 13
  %21 = load ptr, ptr %20, align 8, !tbaa !29
  %22 = load ptr, ptr %8, align 8, !tbaa !58
  %23 = load i32, ptr %6, align 4, !tbaa !10
  %24 = load ptr, ptr %7, align 8, !tbaa !63
  %25 = call ptr %21(ptr noundef %22, i32 noundef %23, ptr noundef %24)
  store ptr %25, ptr %4, align 8
  store i32 1, ptr %9, align 4
  br label %26

26:                                               ; preds = %18, %17
  call void @llvm.lifetime.end.p0(i64 8, ptr %8) #4
  %27 = load ptr, ptr %4, align 8
  ret ptr %27
}