; Function Attrs: nounwind uwtable
define ptr @evp_keymgmt_gen_init(ptr noundef readonly captures(none) %0, i32 noundef %1, ptr noundef %2) local_unnamed_addr #0 {
  %4 = getelementptr inbounds nuw i8, ptr %0, i64 32
  %5 = load ptr, ptr %4, align 8, !tbaa !17
  %6 = tail call ptr @ossl_provider_ctx(ptr noundef %5) #5
  %7 = getelementptr inbounds nuw i8, ptr %0, i64 96
  %8 = load ptr, ptr %7, align 8, !tbaa !24
  %9 = icmp eq ptr %8, null
  br i1 %9, label %12, label %10

10:                                               ; preds = %3
  %11 = tail call ptr %8(ptr noundef %6, i32 noundef %1, ptr noundef %2) #5
  br label %12

12:                                               ; preds = %3, %10
  %.0 = phi ptr [ %11, %10 ], [ null, %3 ]
  ret ptr %.0
}